target datalayout = "e-m:e-p270:32:32-p271:32:32-p272:64:64-i64:64-i128:128-f80:128-n8:16:32:64-S128"
target triple = "x86_64-pc-linux-gnu"

%struct.mbedtls_ecp_curve_info = type { i32, i16, i16, ptr }
%struct.mbedtls_ecp_group = type { i32, %struct.mbedtls_mpi, %struct.mbedtls_mpi, %struct.mbedtls_mpi, %struct.mbedtls_ecp_point, %struct.mbedtls_mpi, i64, i64, i32, ptr, ptr, ptr, ptr, ptr, i64 }
%struct.mbedtls_ecp_point = type { %struct.mbedtls_mpi, %struct.mbedtls_mpi, %struct.mbedtls_mpi }
%struct.mbedtls_mpi = type { ptr, i16, i16 }

; Function Attrs: nounwind uwtable
define hidden ptr @mbedtls_ecp_curve_list() #0 {
  ret ptr @ecp_supported_curves
}

; Function Attrs: alwaysinline nounwind uwtable
define internal void @mbedtls_put_unaligned_uint16(ptr noundef %0, i16 noundef zeroext %1) #5 {
  %3 = alloca ptr, align 8
  %4 = alloca i16, align 2
  store ptr %0, ptr %3, align 8, !tbaa !55
  store i16 %1, ptr %4, align 2, !tbaa !19
  %5 = load ptr, ptr %3, align 8, !tbaa !55
  call void @llvm.memcpy.p0.p0.i64(ptr align 1 %5, ptr align 2 %4, i64 2, i1 false)
  ret void
}

; Function Attrs: nounwind uwtable
define hidden ptr @mbedtls_ecp_curve_info_from_grp_id(i32 noundef %0) #0 {
  %2 = alloca ptr, align 8
  %3 = alloca i32, align 4
  %4 = alloca ptr, align 8
  %5 = alloca i32, align 4
  store i32 %0, ptr %3, align 4, !tbaa !3
  call void @llvm.lifetime.start.p0(i64 8, ptr %4) #11
  %6 = call ptr @mbedtls_ecp_curve_list()
  store ptr %6, ptr %4, align 8, !tbaa !9
  br label %7

7:                                                ; preds = %21, %1
  %8 = load ptr, ptr %4, align 8, !tbaa !9
  %9 = getelementptr inbounds nuw %struct.mbedtls_ecp_curve_info, ptr %8, i32 0, i32 0
  %10 = load i32, ptr %9, align 8, !tbaa !12
  %11 = icmp ne i32 %10, 0
  br i1 %11, label %12, label %24

12:                                               ; preds = %7
  %13 = load ptr, ptr %4, align 8, !tbaa !9
  %14 = getelementptr inbounds nuw %struct.mbedtls_ecp_curve_info, ptr %13, i32 0, i32 0
  %15 = load i32, ptr %14, align 8, !tbaa !12
  %16 = load i32, ptr %3, align 4, !tbaa !3
  %17 = icmp eq i32 %15, %16
  br i1 %17, label %18, label %20

18:                                               ; preds = %12
  %19 = load ptr, ptr %4, align 8, !tbaa !9
  store ptr %19, ptr %2, align 8
  store i32 1, ptr %5, align 4
  br label %25

20:                                               ; preds = %12
  br label %21

21:                                               ; preds = %20
  %22 = load ptr, ptr %4, align 8, !tbaa !9
  %23 = getelementptr inbounds nuw %struct.mbedtls_ecp_curve_info, ptr %22, i32 1
  store ptr %23, ptr %4, align 8, !tbaa !9
  br label %7, !llvm.loop !18

24:                                               ; preds = %7
  store ptr null, ptr %2, align 8
  store i32 1, ptr %5, align 4
  br label %25

25:                                               ; preds = %24, %18
  call void @llvm.lifetime.end.p0(i64 8, ptr %4) #11
  %26 = load ptr, ptr %2, align 8
  ret ptr %26
}

; Function Attrs: nounwind uwtable
define hidden i32 @mbedtls_ecp_tls_write_group(ptr noundef %0, ptr noundef %1, ptr noundef %2, i64 noundef %3) #0 {
  %5 = alloca i32, align 4
  %6 = alloca ptr, align 8
  %7 = alloca ptr, align 8
  %8 = alloca ptr, align 8
  %9 = alloca i64, align 8
  %10 = alloca ptr, align 8
  %11 = alloca i32, align 4
  store ptr %0, ptr %6, align 8, !tbaa !25
  store ptr %1, ptr %7, align 8, !tbaa !48
  store ptr %2, ptr %8, align 8, !tbaa !22
  store i64 %3, ptr %9, align 8, !tbaa !7
  call void @llvm.lifetime.start.p0(i64 8, ptr %10) #11
  %12 = load ptr, ptr %6, align 8, !tbaa !25
  %13 = getelementptr inbounds nuw %struct.mbedtls_ecp_group, ptr %12, i32 0, i32 0
  %14 = load i32, ptr %13, align 8, !tbaa !35
  %15 = call ptr @mbedtls_ecp_curve_info_from_grp_id(i32 noundef %14)
  store ptr %15, ptr %10, align 8, !tbaa !9
  %16 = icmp eq ptr %15, null
  br i1 %16, label %17, label %18

17:                                               ; preds = %4
  store i32 -20352, ptr %5, align 4
  store i32 1, ptr %11, align 4
  br label %34

18:                                               ; preds = %4
  %19 = load ptr, ptr %7, align 8, !tbaa !48
  store i64 3, ptr %19, align 8, !tbaa !7
  %20 = load i64, ptr %9, align 8, !tbaa !7
  %21 = load ptr, ptr %7, align 8, !tbaa !48
  %22 = load i64, ptr %21, align 8, !tbaa !7
  %23 = icmp ult i64 %20, %22
  br i1 %23, label %24, label %25

24:                                               ; preds = %18
  store i32 -20224, ptr %5, align 4
  store i32 1, ptr %11, align 4
  br label %34

25:                                               ; preds = %18
  %26 = load ptr, ptr %8, align 8, !tbaa !22
  %27 = getelementptr inbounds nuw i8, ptr %26, i32 1
  store ptr %27, ptr %8, align 8, !tbaa !22
  store i8 3, ptr %26, align 1, !tbaa !49
  %28 = load ptr, ptr %8, align 8, !tbaa !22
  %29 = getelementptr inbounds i8, ptr %28, i64 0
  %30 = load ptr, ptr %10, align 8, !tbaa !9
  %31 = getelementptr inbounds nuw %struct.mbedtls_ecp_curve_info, ptr %30, i32 0, i32 1
  %32 = load i16, ptr %31, align 4, !tbaa !20
  %33 = call i16 @llvm.bswap.i16(i16 %32)
  call void @mbedtls_put_unaligned_uint16(ptr noundef %29, i16 noundef zeroext %33)
  store i32 0, ptr %5, align 4
  store i32 1, ptr %11, align 4
  br label %34

34:                                               ; preds = %25, %24, %17
  call void @llvm.lifetime.end.p0(i64 8, ptr %10) #11
  %35 = load i32, ptr %5, align 4
  ret i32 %35
}