; Function Attrs: nofree norecurse nosync nounwind memory(argmem: readwrite) uwtable
define hidden range(i32 -20352, 1) i32 @mbedtls_ecp_tls_write_group(ptr noundef readonly captures(none) %0, ptr noundef writeonly captures(none) %1, ptr noundef writeonly captures(none) %2, i64 noundef %3) local_unnamed_addr #12 {
  %5 = load i32, ptr %0, align 8, !tbaa !27
  br label %6

6:                                                ; preds = %9, %4
  %7 = phi i32 [ 5, %4 ], [ %11, %9 ]
  %.07.i = phi ptr [ @ecp_supported_curves, %4 ], [ %10, %9 ]
  %8 = icmp eq i32 %7, %5
  br i1 %8, label %mbedtls_ecp_curve_info_from_grp_id.exit, label %9

9:                                                ; preds = %6
  %10 = getelementptr inbounds nuw i8, ptr %.07.i, i64 16
  %11 = load i32, ptr %10, align 8, !tbaa !7
  %.not.i = icmp eq i32 %11, 0
  br i1 %.not.i, label %mbedtls_ecp_curve_info_from_grp_id.exit.thread, label %6, !llvm.loop !14

mbedtls_ecp_curve_info_from_grp_id.exit:          ; preds = %6
  store i64 3, ptr %1, align 8, !tbaa !33
  %12 = icmp ult i64 %3, 3
  br i1 %12, label %mbedtls_ecp_curve_info_from_grp_id.exit.thread, label %13

13:                                               ; preds = %mbedtls_ecp_curve_info_from_grp_id.exit
  %14 = getelementptr inbounds nuw i8, ptr %2, i64 1
  store i8 3, ptr %2, align 1, !tbaa !34
  %15 = getelementptr inbounds nuw i8, ptr %.07.i, i64 4
  %16 = load i16, ptr %15, align 4, !tbaa !15
  %17 = tail call i16 @llvm.bswap.i16(i16 %16)
  store i16 %17, ptr %14, align 1
  br label %mbedtls_ecp_curve_info_from_grp_id.exit.thread

mbedtls_ecp_curve_info_from_grp_id.exit.thread:   ; preds = %9, %mbedtls_ecp_curve_info_from_grp_id.exit, %13
  %.0 = phi i32 [ 0, %13 ], [ -20224, %mbedtls_ecp_curve_info_from_grp_id.exit ], [ -20352, %9 ]
  ret i32 %.0
}